target datalayout = "e-m:e-p270:32:32-p271:32:32-p272:64:64-i64:64-i128:128-f80:128-n8:16:32:64-S128"
target triple = "x86_64-pc-linux-gnu"

%struct.Llb_Mtr_t_ = type { i32, i32, i32, i32, ptr, ptr, ptr, ptr, ptr, ptr, ptr }
%struct.Llb_Man_t_ = type { ptr, ptr, ptr, ptr, ptr, ptr, ptr, ptr, ptr, ptr, ptr, ptr, ptr, ptr, ptr, ptr, ptr }
%struct.Gia_ParLlb_t_ = type { i32, i32, i32, i32, i32, i32, i32, i32, i32, i32, i32, i32, i32, i32, i32, i32, i32, i32, i32, i32, i32, i32, i32, i64, i32 }

; Function Attrs: nounwind uwtable
define i32 @Llb_ManComputeCommonQuant(ptr noundef %0, i32 noundef %1, i32 noundef %2) #0 {
  %4 = alloca ptr, align 8
  %5 = alloca i32, align 4
  %6 = alloca i32, align 4
  %7 = alloca i32, align 4
  %8 = alloca i32, align 4
  store ptr %0, ptr %4, align 8, !tbaa !3
  store i32 %1, ptr %5, align 4, !tbaa !8
  store i32 %2, ptr %6, align 4, !tbaa !8
  call void @llvm.lifetime.start.p0(i64 4, ptr %7) #4
  call void @llvm.lifetime.start.p0(i64 4, ptr %8) #4
  store i32 0, ptr %8, align 4, !tbaa !8
  store i32 0, ptr %7, align 4, !tbaa !8
  br label %9

9:                                                ; preds = %120, %3
  %10 = load i32, ptr %7, align 4, !tbaa !8
  %11 = load ptr, ptr %4, align 8, !tbaa !3
  %12 = getelementptr inbounds nuw %struct.Llb_Mtr_t_, ptr %11, i32 0, i32 2
  %13 = load i32, ptr %12, align 8, !tbaa !10
  %14 = load ptr, ptr %4, align 8, !tbaa !3
  %15 = getelementptr inbounds nuw %struct.Llb_Mtr_t_, ptr %14, i32 0, i32 1
  %16 = load i32, ptr %15, align 4, !tbaa !17
  %17 = sub nsw i32 %13, %16
  %18 = icmp slt i32 %10, %17
  br i1 %18, label %19, label %123

19:                                               ; preds = %9
  %20 = load ptr, ptr %4, align 8, !tbaa !3
  %21 = getelementptr inbounds nuw %struct.Llb_Mtr_t_, ptr %20, i32 0, i32 7
  %22 = load ptr, ptr %21, align 8, !tbaa !18
  %23 = load i32, ptr %5, align 4, !tbaa !8
  %24 = sext i32 %23 to i64
  %25 = getelementptr inbounds ptr, ptr %22, i64 %24
  %26 = load ptr, ptr %25, align 8, !tbaa !19
  %27 = load i32, ptr %7, align 4, !tbaa !8
  %28 = sext i32 %27 to i64
  %29 = getelementptr inbounds i8, ptr %26, i64 %28
  %30 = load i8, ptr %29, align 1, !tbaa !20
  %31 = sext i8 %30 to i32
  %32 = icmp eq i32 %31, 1
  br i1 %32, label %33, label %59

33:                                               ; preds = %19
  %34 = load ptr, ptr %4, align 8, !tbaa !3
  %35 = getelementptr inbounds nuw %struct.Llb_Mtr_t_, ptr %34, i32 0, i32 7
  %36 = load ptr, ptr %35, align 8, !tbaa !18
  %37 = load i32, ptr %6, align 4, !tbaa !8
  %38 = sext i32 %37 to i64
  %39 = getelementptr inbounds ptr, ptr %36, i64 %38
  %40 = load ptr, ptr %39, align 8, !tbaa !19
  %41 = load i32, ptr %7, align 4, !tbaa !8
  %42 = sext i32 %41 to i64
  %43 = getelementptr inbounds i8, ptr %40, i64 %42
  %44 = load i8, ptr %43, align 1, !tbaa !20
  %45 = sext i8 %44 to i32
  %46 = icmp eq i32 %45, 1
  br i1 %46, label %47, label %59

47:                                               ; preds = %33
  %48 = load ptr, ptr %4, align 8, !tbaa !3
  %49 = getelementptr inbounds nuw %struct.Llb_Mtr_t_, ptr %48, i32 0, i32 6
  %50 = load ptr, ptr %49, align 8, !tbaa !21
  %51 = load i32, ptr %7, align 4, !tbaa !8
  %52 = sext i32 %51 to i64
  %53 = getelementptr inbounds i32, ptr %50, i64 %52
  %54 = load i32, ptr %53, align 4, !tbaa !8
  %55 = icmp eq i32 %54, 2
  br i1 %55, label %56, label %59

56:                                               ; preds = %47
  %57 = load i32, ptr %8, align 4, !tbaa !8
  %58 = add nsw i32 %57, 2
  store i32 %58, ptr %8, align 4, !tbaa !8
  br label %119

59:                                               ; preds = %47, %33, %19
  %60 = load ptr, ptr %4, align 8, !tbaa !3
  %61 = getelementptr inbounds nuw %struct.Llb_Mtr_t_, ptr %60, i32 0, i32 7
  %62 = load ptr, ptr %61, align 8, !tbaa !18
  %63 = load i32, ptr %5, align 4, !tbaa !8
  %64 = sext i32 %63 to i64
  %65 = getelementptr inbounds ptr, ptr %62, i64 %64
  %66 = load ptr, ptr %65, align 8, !tbaa !19
  %67 = load i32, ptr %7, align 4, !tbaa !8
  %68 = sext i32 %67 to i64
  %69 = getelementptr inbounds i8, ptr %66, i64 %68
  %70 = load i8, ptr %69, align 1, !tbaa !20
  %71 = sext i8 %70 to i32
  %72 = icmp eq i32 %71, 1
  br i1 %72, label %73, label %87

73:                                               ; preds = %59
  %74 = load ptr, ptr %4, align 8, !tbaa !3
  %75 = getelementptr inbounds nuw %struct.Llb_Mtr_t_, ptr %74, i32 0, i32 7
  %76 = load ptr, ptr %75, align 8, !tbaa !18
  %77 = load i32, ptr %6, align 4, !tbaa !8
  %78 = sext i32 %77 to i64
  %79 = getelementptr inbounds ptr, ptr %76, i64 %78
  %80 = load ptr, ptr %79, align 8, !tbaa !19
  %81 = load i32, ptr %7, align 4, !tbaa !8
  %82 = sext i32 %81 to i64
  %83 = getelementptr inbounds i8, ptr %80, i64 %82
  %84 = load i8, ptr %83, align 1, !tbaa !20
  %85 = sext i8 %84 to i32
  %86 = icmp eq i32 %85, 0
  br i1 %86, label %115, label %87

87:                                               ; preds = %73, %59
  %88 = load ptr, ptr %4, align 8, !tbaa !3
  %89 = getelementptr inbounds nuw %struct.Llb_Mtr_t_, ptr %88, i32 0, i32 7
  %90 = load ptr, ptr %89, align 8, !tbaa !18
  %91 = load i32, ptr %5, align 4, !tbaa !8
  %92 = sext i32 %91 to i64
  %93 = getelementptr inbounds ptr, ptr %90, i64 %92
  %94 = load ptr, ptr %93, align 8, !tbaa !19
  %95 = load i32, ptr %7, align 4, !tbaa !8
  %96 = sext i32 %95 to i64
  %97 = getelementptr inbounds i8, ptr %94, i64 %96
  %98 = load i8, ptr %97, align 1, !tbaa !20
  %99 = sext i8 %98 to i32
  %100 = icmp eq i32 %99, 0
  br i1 %100, label %101, label %118

101:                                              ; preds = %87
  %102 = load ptr, ptr %4, align 8, !tbaa !3
  %103 = getelementptr inbounds nuw %struct.Llb_Mtr_t_, ptr %102, i32 0, i32 7
  %104 = load ptr, ptr %103, align 8, !tbaa !18
  %105 = load i32, ptr %6, align 4, !tbaa !8
  %106 = sext i32 %105 to i64
  %107 = getelementptr inbounds ptr, ptr %104, i64 %106
  %108 = load ptr, ptr %107, align 8, !tbaa !19
  %109 = load i32, ptr %7, align 4, !tbaa !8
  %110 = sext i32 %109 to i64
  %111 = getelementptr inbounds i8, ptr %108, i64 %110
  %112 = load i8, ptr %111, align 1, !tbaa !20
  %113 = sext i8 %112 to i32
  %114 = icmp eq i32 %113, 1
  br i1 %114, label %115, label %118

115:                                              ; preds = %101, %73
  %116 = load i32, ptr %8, align 4, !tbaa !8
  %117 = add nsw i32 %116, -1
  store i32 %117, ptr %8, align 4, !tbaa !8
  br label %118

118:                                              ; preds = %115, %101, %87
  br label %119

119:                                              ; preds = %118, %56
  br label %120

120:                                              ; preds = %119
  %121 = load i32, ptr %7, align 4, !tbaa !8
  %122 = add nsw i32 %121, 1
  store i32 %122, ptr %7, align 4, !tbaa !8
  br label %9, !llvm.loop !22

123:                                              ; preds = %9
  %124 = load i32, ptr %8, align 4, !tbaa !8
  call void @llvm.lifetime.end.p0(i64 4, ptr %8) #4
  call void @llvm.lifetime.end.p0(i64 4, ptr %7) #4
  ret i32 %124
}

; Function Attrs: nounwind uwtable
define i32 @Llb_ManComputeBestQuant(ptr noundef %0) #0 {
  %2 = alloca ptr, align 8
  %3 = alloca i32, align 4
  %4 = alloca i32, align 4
  %5 = alloca i32, align 4
  %6 = alloca i32, align 4
  %7 = alloca i32, align 4
  store ptr %0, ptr %2, align 8, !tbaa !3
  call void @llvm.lifetime.start.p0(i64 4, ptr %3) #4
  call void @llvm.lifetime.start.p0(i64 4, ptr %4) #4
  call void @llvm.lifetime.start.p0(i64 4, ptr %5) #4
  store i32 -100000, ptr %5, align 4, !tbaa !8
  call void @llvm.lifetime.start.p0(i64 4, ptr %6) #4
  call void @llvm.lifetime.start.p0(i64 4, ptr %7) #4
  store i32 -1, ptr %7, align 4, !tbaa !8
  store i32 1, ptr %3, align 4, !tbaa !8
  br label %8

8:                                                ; preds = %100, %1
  %9 = load i32, ptr %3, align 4, !tbaa !8
  %10 = load ptr, ptr %2, align 8, !tbaa !3
  %11 = getelementptr inbounds nuw %struct.Llb_Mtr_t_, ptr %10, i32 0, i32 3
  %12 = load i32, ptr %11, align 4, !tbaa !24
  %13 = sub nsw i32 %12, 1
  %14 = icmp slt i32 %9, %13
  br i1 %14, label %15, label %103

15:                                               ; preds = %8
  %16 = load i32, ptr %3, align 4, !tbaa !8
  %17 = add nsw i32 %16, 1
  store i32 %17, ptr %4, align 4, !tbaa !8
  br label %18

18:                                               ; preds = %96, %15
  %19 = load i32, ptr %4, align 4, !tbaa !8
  %20 = load ptr, ptr %2, align 8, !tbaa !3
  %21 = getelementptr inbounds nuw %struct.Llb_Mtr_t_, ptr %20, i32 0, i32 3
  %22 = load i32, ptr %21, align 4, !tbaa !24
  %23 = sub nsw i32 %22, 1
  %24 = icmp slt i32 %19, %23
  br i1 %24, label %25, label %99

25:                                               ; preds = %18
  %26 = load ptr, ptr %2, align 8, !tbaa !3
  %27 = getelementptr inbounds nuw %struct.Llb_Mtr_t_, ptr %26, i32 0, i32 4
  %28 = load ptr, ptr %27, align 8, !tbaa !25
  %29 = load i32, ptr %3, align 4, !tbaa !8
  %30 = sext i32 %29 to i64
  %31 = getelementptr inbounds i32, ptr %28, i64 %30
  %32 = load i32, ptr %31, align 4, !tbaa !8
  %33 = icmp eq i32 %32, 0
  br i1 %33, label %50, label %34

34:                                               ; preds = %25
  %35 = load ptr, ptr %2, align 8, !tbaa !3
  %36 = getelementptr inbounds nuw %struct.Llb_Mtr_t_, ptr %35, i32 0, i32 4
  %37 = load ptr, ptr %36, align 8, !tbaa !25
  %38 = load i32, ptr %3, align 4, !tbaa !8
  %39 = sext i32 %38 to i64
  %40 = getelementptr inbounds i32, ptr %37, i64 %39
  %41 = load i32, ptr %40, align 4, !tbaa !8
  %42 = load ptr, ptr %2, align 8, !tbaa !3
  %43 = getelementptr inbounds nuw %struct.Llb_Mtr_t_, ptr %42, i32 0, i32 8
  %44 = load ptr, ptr %43, align 8, !tbaa !26
  %45 = getelementptr inbounds nuw %struct.Llb_Man_t_, ptr %44, i32 0, i32 0
  %46 = load ptr, ptr %45, align 8, !tbaa !27
  %47 = getelementptr inbounds nuw %struct.Gia_ParLlb_t_, ptr %46, i32 0, i32 2
  %48 = load i32, ptr %47, align 8, !tbaa !34
  %49 = icmp sgt i32 %41, %48
  br i1 %49, label %50, label %51

50:                                               ; preds = %34, %25
  br label %96

51:                                               ; preds = %34
  %52 = load ptr, ptr %2, align 8, !tbaa !3
  %53 = getelementptr inbounds nuw %struct.Llb_Mtr_t_, ptr %52, i32 0, i32 4
  %54 = load ptr, ptr %53, align 8, !tbaa !25
  %55 = load i32, ptr %4, align 4, !tbaa !8
  %56 = sext i32 %55 to i64
  %57 = getelementptr inbounds i32, ptr %54, i64 %56
  %58 = load i32, ptr %57, align 4, !tbaa !8
  %59 = icmp eq i32 %58, 0
  br i1 %59, label %76, label %60

60:                                               ; preds = %51
  %61 = load ptr, ptr %2, align 8, !tbaa !3
  %62 = getelementptr inbounds nuw %struct.Llb_Mtr_t_, ptr %61, i32 0, i32 4
  %63 = load ptr, ptr %62, align 8, !tbaa !25
  %64 = load i32, ptr %4, align 4, !tbaa !8
  %65 = sext i32 %64 to i64
  %66 = getelementptr inbounds i32, ptr %63, i64 %65
  %67 = load i32, ptr %66, align 4, !tbaa !8
  %68 = load ptr, ptr %2, align 8, !tbaa !3
  %69 = getelementptr inbounds nuw %struct.Llb_Mtr_t_, ptr %68, i32 0, i32 8
  %70 = load ptr, ptr %69, align 8, !tbaa !26
  %71 = getelementptr inbounds nuw %struct.Llb_Man_t_, ptr %70, i32 0, i32 0
  %72 = load ptr, ptr %71, align 8, !tbaa !27
  %73 = getelementptr inbounds nuw %struct.Gia_ParLlb_t_, ptr %72, i32 0, i32 2
  %74 = load i32, ptr %73, align 8, !tbaa !34
  %75 = icmp sgt i32 %67, %74
  br i1 %75, label %76, label %77

76:                                               ; preds = %60, %51
  br label %96

77:                                               ; preds = %60
  %78 = load ptr, ptr %2, align 8, !tbaa !3
  %79 = load i32, ptr %3, align 4, !tbaa !8
  %80 = load i32, ptr %4, align 4, !tbaa !8
  %81 = call i32 @Llb_ManComputeCommonQuant(ptr noundef %78, i32 noundef %79, i32 noundef %80)
  store i32 %81, ptr %6, align 4, !tbaa !8
  %82 = load i32, ptr %6, align 4, !tbaa !8
  %83 = icmp sle i32 %82, 0
  br i1 %83, label %84, label %85

84:                                               ; preds = %77
  br label %96

85:                                               ; preds = %77
  %86 = load i32, ptr %5, align 4, !tbaa !8
  %87 = load i32, ptr %6, align 4, !tbaa !8
  %88 = icmp slt i32 %86, %87
  br i1 %88, label %89, label %95

89:                                               ; preds = %85
  %90 = load i32, ptr %6, align 4, !tbaa !8
  store i32 %90, ptr %5, align 4, !tbaa !8
  %91 = load i32, ptr %3, align 4, !tbaa !8
  %92 = shl i32 %91, 16
  %93 = load i32, ptr %4, align 4, !tbaa !8
  %94 = or i32 %92, %93
  store i32 %94, ptr %7, align 4, !tbaa !8
  br label %95

95:                                               ; preds = %89, %85
  br label %96

96:                                               ; preds = %95, %84, %76, %50
  %97 = load i32, ptr %4, align 4, !tbaa !8
  %98 = add nsw i32 %97, 1
  store i32 %98, ptr %4, align 4, !tbaa !8
  br label %18, !llvm.loop !37

99:                                               ; preds = %18
  br label %100

100:                                              ; preds = %99
  %101 = load i32, ptr %3, align 4, !tbaa !8
  %102 = add nsw i32 %101, 1
  store i32 %102, ptr %3, align 4, !tbaa !8
  br label %8, !llvm.loop !38

103:                                              ; preds = %8
  %104 = load i32, ptr %7, align 4, !tbaa !8
  call void @llvm.lifetime.end.p0(i64 4, ptr %7) #4
  call void @llvm.lifetime.end.p0(i64 4, ptr %6) #4
  call void @llvm.lifetime.end.p0(i64 4, ptr %5) #4
  call void @llvm.lifetime.end.p0(i64 4, ptr %4) #4
  call void @llvm.lifetime.end.p0(i64 4, ptr %3) #4
  ret i32 %104
}