; Function Attrs: nofree norecurse nosync nounwind memory(read, inaccessiblemem: none) uwtable
define i32 @Llb_ManComputeBestQuant(ptr noundef readonly captures(none) %0) local_unnamed_addr #0 {
  %2 = getelementptr inbounds nuw i8, ptr %0, i64 12
  %3 = load i32, ptr %2, align 4, !tbaa !22
  %4 = icmp sgt i32 %3, 2
  br i1 %4, label %.lr.ph56, label %._crit_edge

.lr.ph56:                                         ; preds = %1
  %5 = add nsw i32 %3, -1
  %6 = getelementptr inbounds nuw i8, ptr %0, i64 16
  %7 = getelementptr inbounds nuw i8, ptr %0, i64 48
  %8 = getelementptr inbounds nuw i8, ptr %0, i64 8
  %9 = getelementptr inbounds nuw i8, ptr %0, i64 4
  %10 = getelementptr inbounds nuw i8, ptr %0, i64 40
  %11 = getelementptr inbounds nuw i8, ptr %0, i64 32
  %12 = zext nneg i32 %5 to i64
  %wide.trip.count67 = zext nneg i32 %5 to i64
  br label %13

.loopexit:                                        ; preds = %Llb_ManComputeCommonQuant.exit.thread, %.lr.ph.split, %.lr.ph, %13
  %.128.lcssa = phi i32 [ %.02753, %13 ], [ %.02753, %.lr.ph ], [ %.02753, %.lr.ph.split ], [ %.229, %Llb_ManComputeCommonQuant.exit.thread ]
  %.1.lcssa = phi i32 [ %.055, %13 ], [ %.055, %.lr.ph ], [ %.055, %.lr.ph.split ], [ %.2, %Llb_ManComputeCommonQuant.exit.thread ]
  %indvars.iv.next = add nuw nsw i64 %indvars.iv, 1
  %exitcond68.not = icmp eq i64 %indvars.iv.next65, %wide.trip.count67
  br i1 %exitcond68.not, label %._crit_edge, label %13, !llvm.loop !23

13:                                               ; preds = %.lr.ph56, %.loopexit
  %indvars.iv64 = phi i64 [ 1, %.lr.ph56 ], [ %indvars.iv.next65, %.loopexit ]
  %indvars.iv = phi i64 [ 2, %.lr.ph56 ], [ %indvars.iv.next, %.loopexit ]
  %.055 = phi i32 [ -1, %.lr.ph56 ], [ %.1.lcssa, %.loopexit ]
  %.02753 = phi i32 [ -100000, %.lr.ph56 ], [ %.128.lcssa, %.loopexit ]
  %indvars.iv.next65 = add nuw nsw i64 %indvars.iv64, 1
  %14 = icmp samesign ult i64 %indvars.iv.next65, %12
  br i1 %14, label %.lr.ph, label %.loopexit

.lr.ph:                                           ; preds = %13
  %15 = load ptr, ptr %6, align 8, !tbaa !24
  %16 = getelementptr inbounds nuw i32, ptr %15, i64 %indvars.iv64
  %17 = load i32, ptr %16, align 4, !tbaa !19
  %18 = icmp eq i32 %17, 0
  %19 = trunc nuw nsw i64 %indvars.iv64 to i32
  %20 = shl i32 %19, 16
  br i1 %18, label %.loopexit, label %.lr.ph.split

.lr.ph.split:                                     ; preds = %.lr.ph
  %21 = load ptr, ptr %7, align 8, !tbaa !25
  %22 = load ptr, ptr %21, align 8, !tbaa !26
  %23 = getelementptr inbounds nuw i8, ptr %22, i64 8
  %24 = load i32, ptr %23, align 8, !tbaa !34
  %25 = icmp sgt i32 %17, %24
  br i1 %25, label %.loopexit, label %.lr.ph.split.split

.lr.ph.split.split:                               ; preds = %.lr.ph.split, %Llb_ManComputeCommonQuant.exit.thread
  %indvars.iv61 = phi i64 [ %indvars.iv.next62, %Llb_ManComputeCommonQuant.exit.thread ], [ %indvars.iv, %.lr.ph.split ]
  %.140 = phi i32 [ %.2, %Llb_ManComputeCommonQuant.exit.thread ], [ %.055, %.lr.ph.split ]
  %.12839 = phi i32 [ %.229, %Llb_ManComputeCommonQuant.exit.thread ], [ %.02753, %.lr.ph.split ]
  %26 = getelementptr inbounds nuw i32, ptr %15, i64 %indvars.iv61
  %27 = load i32, ptr %26, align 4, !tbaa !19
  %28 = icmp eq i32 %27, 0
  %29 = icmp sgt i32 %27, %24
  %or.cond = or i1 %28, %29
  br i1 %or.cond, label %Llb_ManComputeCommonQuant.exit.thread, label %30

30:                                               ; preds = %.lr.ph.split.split
  %31 = load i32, ptr %8, align 8, !tbaa !3
  %32 = load i32, ptr %9, align 4, !tbaa !14
  %33 = sub nsw i32 %31, %32
  %34 = icmp sgt i32 %33, 0
  br i1 %34, label %.lr.ph.i, label %Llb_ManComputeCommonQuant.exit.thread

.lr.ph.i:                                         ; preds = %30
  %35 = load ptr, ptr %10, align 8, !tbaa !15
  %36 = getelementptr inbounds nuw ptr, ptr %35, i64 %indvars.iv64
  %37 = load ptr, ptr %36, align 8, !tbaa !16
  %38 = getelementptr inbounds nuw ptr, ptr %35, i64 %indvars.iv61
  %wide.trip.count.i = zext nneg i32 %33 to i64
  br label %39

39:                                               ; preds = %.thread27.i, %.lr.ph.i
  %indvars.iv.i = phi i64 [ 0, %.lr.ph.i ], [ %indvars.iv.next.i, %.thread27.i ]
  %.029.i = phi i32 [ 0, %.lr.ph.i ], [ %.1.i, %.thread27.i ]
  %40 = getelementptr inbounds nuw i8, ptr %37, i64 %indvars.iv.i
  %41 = load i8, ptr %40, align 1, !tbaa !17
  switch i8 %41, label %.thread27.i [
    i8 1, label %42
    i8 0, label %52
  ]

42:                                               ; preds = %39
  %43 = load ptr, ptr %38, align 8, !tbaa !16
  %44 = getelementptr inbounds nuw i8, ptr %43, i64 %indvars.iv.i
  %45 = load i8, ptr %44, align 1, !tbaa !17
  switch i8 %45, label %.thread27.i [
    i8 1, label %46
    i8 0, label %57
  ]

46:                                               ; preds = %42
  %47 = load ptr, ptr %11, align 8, !tbaa !18
  %48 = getelementptr inbounds nuw i32, ptr %47, i64 %indvars.iv.i
  %49 = load i32, ptr %48, align 4, !tbaa !19
  %50 = icmp eq i32 %49, 2
  %51 = add nsw i32 %.029.i, 2
  %spec.select.i = select i1 %50, i32 %51, i32 %.029.i
  br label %.thread27.i

52:                                               ; preds = %39
  %53 = load ptr, ptr %38, align 8, !tbaa !16
  %54 = getelementptr inbounds nuw i8, ptr %53, i64 %indvars.iv.i
  %55 = load i8, ptr %54, align 1, !tbaa !17
  %56 = icmp eq i8 %55, 1
  br i1 %56, label %57, label %.thread27.i

57:                                               ; preds = %52, %42
  %58 = add nsw i32 %.029.i, -1
  br label %.thread27.i

.thread27.i:                                      ; preds = %57, %52, %46, %42, %39
  %.1.i = phi i32 [ %58, %57 ], [ %.029.i, %52 ], [ %.029.i, %39 ], [ %spec.select.i, %46 ], [ %.029.i, %42 ]
  %indvars.iv.next.i = add nuw nsw i64 %indvars.iv.i, 1
  %exitcond.not.i = icmp eq i64 %indvars.iv.next.i, %wide.trip.count.i
  br i1 %exitcond.not.i, label %Llb_ManComputeCommonQuant.exit, label %39, !llvm.loop !20

Llb_ManComputeCommonQuant.exit:                   ; preds = %.thread27.i
  %59 = icmp sgt i32 %.1.i, 0
  %60 = icmp slt i32 %.12839, %.1.i
  %or.cond35 = select i1 %59, i1 %60, i1 false
  %61 = trunc nuw nsw i64 %indvars.iv61 to i32
  %62 = or i32 %20, %61
  %spec.select = select i1 %or.cond35, i32 %.1.i, i32 %.12839
  %spec.select58 = select i1 %or.cond35, i32 %62, i32 %.140
  br label %Llb_ManComputeCommonQuant.exit.thread

Llb_ManComputeCommonQuant.exit.thread:            ; preds = %Llb_ManComputeCommonQuant.exit, %30, %.lr.ph.split.split
  %.229 = phi i32 [ %.12839, %.lr.ph.split.split ], [ %.12839, %30 ], [ %spec.select, %Llb_ManComputeCommonQuant.exit ]
  %.2 = phi i32 [ %.140, %.lr.ph.split.split ], [ %.140, %30 ], [ %spec.select58, %Llb_ManComputeCommonQuant.exit ]
  %indvars.iv.next62 = add nuw nsw i64 %indvars.iv61, 1
  %exitcond.not = icmp eq i64 %indvars.iv.next62, %wide.trip.count67
  br i1 %exitcond.not, label %.loopexit, label %.lr.ph.split.split, !llvm.loop !37

._crit_edge:                                      ; preds = %.loopexit, %1
  %.0.lcssa = phi i32 [ -1, %1 ], [ %.1.lcssa, %.loopexit ]
  ret i32 %.0.lcssa
}